target datalayout = "e-m:e-p270:32:32-p271:32:32-p272:64:64-i64:64-i128:128-f80:128-n8:16:32:64-S128"
target triple = "x86_64-pc-linux-gnu"

%struct.SDL_Haptic = type { i32, ptr, ptr, i32, i32, i32, i32, ptr, i32, i32, %union.SDL_HapticEffect, ptr }
%union.SDL_HapticEffect = type { %struct.SDL_HapticCustom, [16 x i8] }
%struct.SDL_HapticCustom = type { i16, %struct.SDL_HapticDirection, i32, i16, i16, i16, i8, i16, i16, ptr, i16, i16, i16, i16 }
%struct.SDL_HapticDirection = type { i8, [3 x i32] }
%struct.haptic_effect = type { %union.SDL_HapticEffect, ptr }

@.str = private unnamed_addr constant [26 x i8] c"Parameter '%s' is invalid\00", align 1
@.str.1 = private unnamed_addr constant [7 x i8] c"haptic\00", align 1
@.str.23 = private unnamed_addr constant [35 x i8] c"Haptic: Invalid effect identifier.\00", align 1

; Function Attrs: nounwind uwtable
define internal zeroext i1 @ValidEffect(ptr noundef %0, i32 noundef %1) #0 {
  %3 = alloca i1, align 1
  %4 = alloca ptr, align 8
  %5 = alloca i32, align 4
  store ptr %0, ptr %4, align 8
  store i32 %1, ptr %5, align 4
  %6 = load i32, ptr %5, align 4
  %7 = icmp slt i32 %6, 0
  br i1 %7, label %14, label %8

8:                                                ; preds = %2
  %9 = load i32, ptr %5, align 4
  %10 = load ptr, ptr %4, align 8
  %11 = getelementptr inbounds nuw %struct.SDL_Haptic, ptr %10, i32 0, i32 3
  %12 = load i32, ptr %11, align 8
  %13 = icmp sge i32 %9, %12
  br i1 %13, label %14, label %16

14:                                               ; preds = %8, %2
  %15 = call zeroext i1 (ptr, ...) @SDL_SetError_REAL(ptr noundef @.str.23)
  store i1 false, ptr %3, align 1
  br label %17

16:                                               ; preds = %8
  store i1 true, ptr %3, align 1
  br label %17

17:                                               ; preds = %16, %14
  %18 = load i1, ptr %3, align 1
  ret i1 %18
}

; Function Attrs: nounwind uwtable
define hidden zeroext i1 @SDL_StopHapticEffect_REAL(ptr noundef %0, i32 noundef %1) #0 {
  %3 = alloca i1, align 1
  %4 = alloca ptr, align 8
  %5 = alloca i32, align 4
  store ptr %0, ptr %4, align 8
  store i32 %1, ptr %5, align 4
  %6 = load ptr, ptr %4, align 8
  %7 = call zeroext i1 @SDL_ObjectValid(ptr noundef %6, i32 noundef 6)
  br i1 %7, label %10, label %8

8:                                                ; preds = %2
  %9 = call zeroext i1 (ptr, ...) @SDL_SetError_REAL(ptr noundef @.str, ptr noundef @.str.1)
  store i1 false, ptr %3, align 1
  br label %33

10:                                               ; preds = %2
  %11 = load ptr, ptr %4, align 8
  %12 = call zeroext i1 @SDL_HIDAPI_HapticIsHidapi(ptr noundef %11)
  br i1 %12, label %13, label %17

13:                                               ; preds = %10
  %14 = load ptr, ptr %4, align 8
  %15 = load i32, ptr %5, align 4
  %16 = call zeroext i1 @SDL_HIDAPI_HapticStopEffect(ptr noundef %14, i32 noundef %15)
  store i1 %16, ptr %3, align 1
  br label %33

17:                                               ; preds = %10
  %18 = load ptr, ptr %4, align 8
  %19 = load i32, ptr %5, align 4
  %20 = call zeroext i1 @ValidEffect(ptr noundef %18, i32 noundef %19)
  br i1 %20, label %22, label %21

21:                                               ; preds = %17
  store i1 false, ptr %3, align 1
  br label %33

22:                                               ; preds = %17
  %23 = load ptr, ptr %4, align 8
  %24 = load ptr, ptr %4, align 8
  %25 = getelementptr inbounds nuw %struct.SDL_Haptic, ptr %24, i32 0, i32 2
  %26 = load ptr, ptr %25, align 8
  %27 = load i32, ptr %5, align 4
  %28 = sext i32 %27 to i64
  %29 = getelementptr inbounds %struct.haptic_effect, ptr %26, i64 %28
  %30 = call zeroext i1 @SDL_SYS_HapticStopEffect(ptr noundef %23, ptr noundef %29)
  br i1 %30, label %32, label %31

31:                                               ; preds = %22
  store i1 false, ptr %3, align 1
  br label %33

32:                                               ; preds = %22
  store i1 true, ptr %3, align 1
  br label %33

33:                                               ; preds = %32, %31, %21, %13, %8
  %34 = load i1, ptr %3, align 1
  ret i1 %34
}