; Function Attrs: nounwind uwtable
define hidden zeroext i1 @SDL_StopHapticEffect_REAL(ptr noundef %0, i32 noundef %1) local_unnamed_addr #0 {
  %3 = tail call zeroext i1 @SDL_ObjectValid(ptr noundef %0, i32 noundef 6) #9
  br i1 %3, label %6, label %4

4:                                                ; preds = %2
  %5 = tail call zeroext i1 (ptr, ...) @SDL_SetError_REAL(ptr noundef nonnull @.str, ptr noundef nonnull @.str.1) #9
  br label %22

6:                                                ; preds = %2
  %7 = tail call zeroext i1 @SDL_HIDAPI_HapticIsHidapi(ptr noundef %0) #9
  br i1 %7, label %8, label %10

8:                                                ; preds = %6
  %9 = tail call zeroext i1 @SDL_HIDAPI_HapticStopEffect(ptr noundef %0, i32 noundef %1) #9
  br label %22

10:                                               ; preds = %6
  %11 = icmp slt i32 %1, 0
  br i1 %11, label %ValidEffect.exit, label %12

12:                                               ; preds = %10
  %13 = getelementptr inbounds nuw i8, ptr %0, i64 24
  %14 = load i32, ptr %13, align 8
  %.not.i = icmp slt i32 %1, %14
  br i1 %.not.i, label %16, label %ValidEffect.exit

ValidEffect.exit:                                 ; preds = %10, %12
  %15 = tail call zeroext i1 (ptr, ...) @SDL_SetError_REAL(ptr noundef nonnull @.str.23) #9
  br label %22

16:                                               ; preds = %12
  %17 = getelementptr inbounds nuw i8, ptr %0, i64 16
  %18 = load ptr, ptr %17, align 8
  %19 = zext nneg i32 %1 to i64
  %20 = getelementptr inbounds nuw %struct.haptic_effect, ptr %18, i64 %19
  %21 = tail call zeroext i1 @SDL_SYS_HapticStopEffect(ptr noundef nonnull %0, ptr noundef %20) #9
  br label %22

22:                                               ; preds = %ValidEffect.exit, %16, %8, %4
  %.0 = phi i1 [ %9, %8 ], [ false, %4 ], [ false, %ValidEffect.exit ], [ %21, %16 ]
  ret i1 %.0
}